ASxxxx Linker V03.00 + NoICE + sdld,  page 1.
Hexadecimal  [32-Bits]

Area                                    Addr        Size        Decimal Bytes (Attributes)
--------------------------------        ----        ----        ------- ----- ------------
CABS                                00000000    00000000 =           0. bytes (ABS,CON,CODE)

      Value  Global                              Global Defined In Module
      -----  --------------------------------   ------------------------
C:   00000000  l_BIT_BANK                      
C:   00000000  l_CABS                          
C:   00000000  l_CONST                         
C:   00000000  l_GSINIT1                       
C:   00000000  l_GSINIT5                       
C:   00000000  l_IABS                          
C:   00000000  l_ISEG                          
C:   00000000  l_PSEG                          
C:   00000000  l_REG_BANK_1                    
C:   00000000  l_REG_BANK_2                    
C:   00000000  l_REG_BANK_3                    
C:   00000000  l_RSEG                          
C:   00000000  l_RSEG0                         
C:   00000000  l_RSEG1                         
C:   00000000  l_XABS                          
C:   00000000  l_XINIT                         
C:   00000000  l_XISEG                         
C:   00000000  l_XSEG                          
C:   00000000  l__CODE                         
C:   00000000  s_BSEG                          
C:   00000000  s_CABS                          
C:   00000000  s_DSEG                          
C:   00000000  s_HOME                          
C:   00000000  s_IABS                          
C:   00000000  s_ISEG                          
C:   00000000  s_REG_BANK_0                    
C:   00000000  s_RSEG                          
C:   00000000  s_RSEG0                         
C:   00000000  s_RSEG1                         
C:   00000000  s_XABS                          
C:   00000001  l_BSEG_BYTES                    
C:   00000001  s_PSEG                          
C:   00000001  s_XISEG                         
C:   00000001  s_XSEG                          
C:   00000002  l_OSEG                          
C:   00000003  l_GSFINAL                       
C:   00000003  l_GSINIT0                       
C:   00000004  l_BSEG                          
C:   00000008  l_REG_BANK_0                    
C:   00000008  s_REG_BANK_1                    
C:   0000000A  l_GSINIT2                       
C:   0000000B  s_OSEG                          
C:   00000010  s_REG_BANK_2                    
C:   00000018  s_BIT_BANK                      
C:   00000018  s_REG_BANK_3                    
C:   00000020  s_BSEG_BYTES                    
C:   00000020  s__CODE                         
C:   00000022  l_GSINIT3                       
C:   0000002A  l_GSINIT4                       
C:   00000041  s_SSEG                          
ASxxxx Linker V03.00 + NoICE + sdld,  page 2.
Hexadecimal  [32-Bits]

Area                                    Addr        Size        Decimal Bytes (Attributes)
--------------------------------        ----        ----        ------- ----- ------------
CABS                                00000000    00000000 =           0. bytes (ABS,CON,CODE)

      Value  Global                              Global Defined In Module
      -----  --------------------------------   ------------------------
C:   00000054  l_GSINIT                        
C:   0000005E  l_TABLE                         
C:   0000006B  l_HOME                          
C:   0000006B  s_GSINIT0                       
C:   0000006D  l_DSEG                          
C:   0000006E  s_GSINIT1                       
C:   0000006E  s_GSINIT2                       
C:   00000072  l_CSEG                          
C:   00000078  s_GSINIT3                       
C:   0000009A  s_GSINIT4                       
C:   000000BF  l_SSEG                          
C:   000000C4  s_GSINIT                        
C:   000000C4  s_GSINIT5                       
C:   00000100  l_IRAM                          
C:   00000118  s_GSFINAL                       
C:   0000011B  s_CSEG                          
C:   0000018D  s_USB_INTERRUPTS                
C:   00000351  l_USB_INTERRUPTS                
C:   000004DE  s_CONST                         
C:   000004DE  s_TABLE                         
C:   000004DE  s_XINIT                         

ASxxxx Linker V03.00 + NoICE + sdld,  page 3.
Hexadecimal  [32-Bits]

Area                                    Addr        Size        Decimal Bytes (Attributes)
--------------------------------        ----        ----        ------- ----- ------------
.  .ABS.                            00000000    00000000 =           0. bytes (ABS,CON)

      Value  Global                              Global Defined In Module
      -----  --------------------------------   ------------------------
     00000000  .__.ABS.                           _startup
     00000080  G$IOA$0_0$0                        table
     00000080  G$PA0$0_0$0                        table
     00000080  _IOA                               table
     00000080  _PA0                               table
     00000081  G$PA1$0_0$0                        table
     00000081  _PA1                               table
     00000088  G$IT0$0_0$0                        table
     00000088  G$TCON$0_0$0                       table
     00000088  _IT0                               table
     00000088  _TCON                              table
     00000089  G$IE0$0_0$0                        table
     00000089  G$TMOD$0_0$0                       table
     00000089  _IE0                               table
     00000089  _TMOD                              table
     0000008A  G$IT1$0_0$0                        table
     0000008A  G$TL0$0_0$0                        table
     0000008A  _IT1                               table
     0000008A  _TL0                               table
     0000008B  G$IE1$0_0$0                        table
     0000008B  G$TL1$0_0$0                        table
     0000008B  _IE1                               table
     0000008B  _TL1                               table
     0000008C  G$TH0$0_0$0                        table
     0000008C  G$TR0$0_0$0                        table
     0000008C  _TH0                               table
     0000008C  _TR0                               table
     0000008D  G$TF0$0_0$0                        table
     0000008D  G$TH1$0_0$0                        table
     0000008D  _TF0                               table
     0000008D  _TH1                               table
     0000008E  G$CKCON$0_0$0                      table
     0000008E  G$TR1$0_0$0                        table
     0000008E  _CKCON                             table
     0000008E  _TR1                               table
     0000008F  G$TF1$0_0$0                        table
     0000008F  _TF1                               table
     00000091  G$EXIF$0_0$0                       table
     00000091  _EXIF                              table
     00000092  G$MPAGE$0_0$0                      table
     00000092  G$_XPAGE$0_0$0                     table
     00000092  _MPAGE                             table
     00000092  __XPAGE                            table
     000000A8  G$EX0$0_0$0                        table
     000000A8  G$IE$0_0$0                         table
     000000A8  _EX0                               table
     000000A8  _IE                                table
     000000A9  G$ET0$0_0$0                        table
     000000A9  _ET0                               table
     000000AA  G$EX1$0_0$0                        table
ASxxxx Linker V03.00 + NoICE + sdld,  page 4.
Hexadecimal  [32-Bits]

Area                                    Addr        Size        Decimal Bytes (Attributes)
--------------------------------        ----        ----        ------- ----- ------------
.  .ABS.                            00000000    00000000 =           0. bytes (ABS,CON)

      Value  Global                              Global Defined In Module
      -----  --------------------------------   ------------------------
     000000AA  _EX1                               table
     000000AB  G$ET1$0_0$0                        table
     000000AB  _ET1                               table
     000000AC  G$ES0$0_0$0                        table
     000000AC  _ES0                               table
     000000AD  G$ET2$0_0$0                        table
     000000AD  _ET2                               table
     000000AE  G$ES1$0_0$0                        table
     000000AE  _ES1                               table
     000000AF  G$EA$0_0$0                         table
     000000AF  _EA                                table
     000000B2  G$OEA$0_0$0                        table
     000000B2  _OEA                               table
     000000D0  G$PSW$0_0$0                        table
     000000D0  _PSW                               table
     000000E0  G$ACC$0_0$0                        table
     000000E0  _ACC                               table
     000000E8  G$EIE$0_0$0                        table
     000000E8  G$EUSB$0_0$0                       table
     000000E8  _EIE                               table
     000000E8  _EUSB                              table
     000000E9  G$EI2C$0_0$0                       table
     000000E9  _EI2C                              table
     000000EA  G$EX4$0_0$0                        table
     000000EA  _EX4                               table
     000000EB  G$EX5$0_0$0                        table
     000000EB  _EX5                               table
     000000EC  G$EX6$0_0$0                        table
     000000EC  _EX6                               table
     0000E600  G$CPUCS$0_0$0                      table
     0000E600  _CPUCS                             table
     0000E610  G$EP1OUTCFG$0_0$0                  table
     0000E610  _EP1OUTCFG                         table
     0000E611  G$EP1INCFG$0_0$0                   table
     0000E611  _EP1INCFG                          table
     0000E65C  G$USBIE$0_0$0                      table
     0000E65C  _USBIE                             table
     0000E65D  G$USBIRQ$0_0$0                     table
     0000E65D  _USBIRQ                            table
     0000E65E  G$EPIE$0_0$0                       table
     0000E65E  _EPIE                              table
     0000E65F  G$EPIRQ$0_0$0                      table
     0000E65F  _EPIRQ                             table
     0000E668  G$INTSETUP$0_0$0                   table
     0000E668  _INTSETUP                          table
     0000E680  G$USBCS$0_0$0                      table
     0000E680  _USBCS                             table
     0000E68A  G$EP0BCH$0_0$0                     table
     0000E68A  _EP0BCH                            table
     0000E68B  G$EP0BCL$0_0$0                     table
     0000E68B  _EP0BCL                            table
ASxxxx Linker V03.00 + NoICE + sdld,  page 5.
Hexadecimal  [32-Bits]

Area                                    Addr        Size        Decimal Bytes (Attributes)
--------------------------------        ----        ----        ------- ----- ------------
.  .ABS.                            00000000    00000000 =           0. bytes (ABS,CON)

      Value  Global                              Global Defined In Module
      -----  --------------------------------   ------------------------
     0000E6A0  G$EP0CS$0_0$0                      table
     0000E6A0  _EP0CS                             table
     0000E6B3  G$SUDPTRH$0_0$0                    table
     0000E6B3  _SUDPTRH                           table
     0000E6B4  G$SUDPTRL$0_0$0                    table
     0000E6B4  _SUDPTRL                           table
     0000E6B5  G$SUDPTRCTL$0_0$0                  table
     0000E6B5  _SUDPTRCTL                         table

ASxxxx Linker V03.00 + NoICE + sdld,  page 6.
Hexadecimal  [32-Bits]

Area                                    Addr        Size        Decimal Bytes (Attributes)
--------------------------------        ----        ----        ------- ----- ------------
BSEG_BYTES                          00000020    00000001 =           1. bytes (REL,CON)

      Value  Global                              Global Defined In Module
      -----  --------------------------------   ------------------------
ASxxxx Linker V03.00 + NoICE + sdld,  page 7.
Hexadecimal  [32-Bits]

Area                                    Addr        Size        Decimal Bytes (Attributes)
--------------------------------        ----        ----        ------- ----- ------------
REG_BANK_0                          00000000    00000008 =           8. bytes (REL,OVR)

      Value  Global                              Global Defined In Module
      -----  --------------------------------   ------------------------
ASxxxx Linker V03.00 + NoICE + sdld,  page 8.
Hexadecimal  [32-Bits]

Area                                    Addr        Size        Decimal Bytes (Attributes)
--------------------------------        ----        ----        ------- ----- ------------
DSEG                                00000000    0000006D =         109. bytes (REL,CON)

      Value  Global                              Global Defined In Module
      -----  --------------------------------   ------------------------
     00000008  G$pCode$0_0$0                      main
     00000008  _pCode                             main
     0000000A  G$cntTmp$0_0$0                     main
     0000000A  _cntTmp                            main
     00000021  G$ptr_dat$0_0$0                    interrupts
     00000021  _ptr_dat                           interrupts
     00000023  G$ptr_descriptor$0_0$0             interrupts
     00000023  _ptr_descriptor                    interrupts
     00000025  G$ptr_setupdat$0_0$0               interrupts
     00000025  _ptr_setupdat                      interrupts
     00000027  G$std_func$0_0$0                   interrupts
     00000027  _std_func                          interrupts
ASxxxx Linker V03.00 + NoICE + sdld,  page 9.
Hexadecimal  [32-Bits]

Area                                    Addr        Size        Decimal Bytes (Attributes)
--------------------------------        ----        ----        ------- ----- ------------
OSEG                                0000000B    00000002 =           2. bytes (REL,OVR)

      Value  Global                              Global Defined In Module
      -----  --------------------------------   ------------------------
     0000000B  Lmain.main$i$2_0$18                main
     0000000C  Lmain.main$j$4_0$20                main

ASxxxx Linker V03.00 + NoICE + sdld,  page 10.
Hexadecimal  [32-Bits]

Area                                    Addr        Size        Decimal Bytes (Attributes)
--------------------------------        ----        ----        ------- ----- ------------
SSEG                                00000041    000000BF =         191. bytes (REL,OVR)

      Value  Global                              Global Defined In Module
      -----  --------------------------------   ------------------------
     00000041  __start__stack                     main

ASxxxx Linker V03.00 + NoICE + sdld,  page 11.
Hexadecimal  [32-Bits]

Area                                    Addr        Size        Decimal Bytes (Attributes)
--------------------------------        ----        ----        ------- ----- ------------
HOME                                00000000    0000006B =         107. bytes (REL,CON,CODE)

      Value  Global                              Global Defined In Module
      -----  --------------------------------   ------------------------
C:   00000000  A$main$279                         main
C:   00000003  A$main$280                         main
C:   0000000B  A$main$282                         main
C:   00000013  A$main$284                         main
C:   0000001B  A$main$286                         main
C:   00000023  A$main$288                         main
C:   0000002B  A$main$290                         main
C:   00000033  A$main$292                         main
C:   0000003B  A$main$294                         main
C:   00000043  A$main$296                         main
C:   0000004B  A$main$298                         main
C:   00000053  A$main$300                         main
C:   0000005B  A$main$302                         main
C:   00000063  A$main$304                         main
C:   00000066  A$main$326                         main
C:   00000066  __sdcc_program_startup             main
C:   00000069  __sdcc_call_dptr                   

ASxxxx Linker V03.00 + NoICE + sdld,  page 12.
Hexadecimal  [32-Bits]

Area                                    Addr        Size        Decimal Bytes (Attributes)
--------------------------------        ----        ----        ------- ----- ------------
GSINIT0                             0000006B    00000003 =           3. bytes (REL,CON,CODE)

      Value  Global                              Global Defined In Module
      -----  --------------------------------   ------------------------
C:   0000006B  __sdcc_gsinit_startup              

ASxxxx Linker V03.00 + NoICE + sdld,  page 13.
Hexadecimal  [32-Bits]

Area                                    Addr        Size        Decimal Bytes (Attributes)
--------------------------------        ----        ----        ------- ----- ------------
GSINIT2                             0000006E    0000000A =          10. bytes (REL,CON,CODE)

      Value  Global                              Global Defined In Module
      -----  --------------------------------   ------------------------
ASxxxx Linker V03.00 + NoICE + sdld,  page 14.
Hexadecimal  [32-Bits]

Area                                    Addr        Size        Decimal Bytes (Attributes)
--------------------------------        ----        ----        ------- ----- ------------
GSINIT3                             00000078    00000022 =          34. bytes (REL,CON,CODE)

      Value  Global                              Global Defined In Module
      -----  --------------------------------   ------------------------
C:   00000078  __mcs51_genXINIT                   

ASxxxx Linker V03.00 + NoICE + sdld,  page 15.
Hexadecimal  [32-Bits]

Area                                    Addr        Size        Decimal Bytes (Attributes)
--------------------------------        ----        ----        ------- ----- ------------
GSINIT4                             0000009A    0000002A =          42. bytes (REL,CON,CODE)

      Value  Global                              Global Defined In Module
      -----  --------------------------------   ------------------------
C:   0000009A  __mcs51_genRAMCLEAR                
C:   000000A0  __mcs51_genXRAMCLEAR               

ASxxxx Linker V03.00 + NoICE + sdld,  page 16.
Hexadecimal  [32-Bits]

Area                                    Addr        Size        Decimal Bytes (Attributes)
--------------------------------        ----        ----        ------- ----- ------------
GSINIT                              000000C4    00000054 =          84. bytes (REL,CON,CODE)

      Value  Global                              Global Defined In Module
      -----  --------------------------------   ------------------------
C:   000000C4  A$interrupts$322                   interrupts
C:   000000C4  C$interrupts.c$53$1_0$227          interrupts
C:   000000C7  A$interrupts$323                   interrupts
C:   000000CA  A$interrupts$326                   interrupts
C:   000000CA  C$interrupts.c$240$1_0$227         interrupts
C:   000000CD  A$interrupts$327                   interrupts
C:   000000D0  A$interrupts$328                   interrupts
C:   000000D3  A$interrupts$329                   interrupts
C:   000000D6  A$interrupts$330                   interrupts
C:   000000D9  A$interrupts$331                   interrupts
C:   000000DC  A$interrupts$332                   interrupts
C:   000000DF  A$interrupts$333                   interrupts
C:   000000E2  A$interrupts$334                   interrupts
C:   000000E5  A$interrupts$335                   interrupts
C:   000000E8  A$interrupts$336                   interrupts
C:   000000EB  A$interrupts$337                   interrupts
C:   000000EE  A$interrupts$338                   interrupts
C:   000000F1  A$interrupts$339                   interrupts
C:   000000F4  A$interrupts$340                   interrupts
C:   000000F7  A$interrupts$341                   interrupts
C:   000000FA  A$interrupts$342                   interrupts
C:   000000FD  A$interrupts$343                   interrupts
C:   00000100  A$interrupts$344                   interrupts
C:   00000103  A$interrupts$345                   interrupts
C:   00000106  A$interrupts$346                   interrupts
C:   00000109  A$interrupts$347                   interrupts
C:   0000010C  A$interrupts$348                   interrupts
C:   0000010F  A$interrupts$349                   interrupts
C:   00000112  A$interrupts$350                   interrupts
C:   00000115  A$interrupts$351                   interrupts
ASxxxx Linker V03.00 + NoICE + sdld,  page 17.
Hexadecimal  [32-Bits]

Area                                    Addr        Size        Decimal Bytes (Attributes)
--------------------------------        ----        ----        ------- ----- ------------
GSFINAL                             00000118    00000003 =           3. bytes (REL,CON,CODE)

      Value  Global                              Global Defined In Module
      -----  --------------------------------   ------------------------
C:   00000118  A$main$319                         main

ASxxxx Linker V03.00 + NoICE + sdld,  page 18.
Hexadecimal  [32-Bits]

Area                                    Addr        Size        Decimal Bytes (Attributes)
--------------------------------        ----        ----        ------- ----- ------------
CSEG                                0000011B    00000072 =         114. bytes (REL,CON,CODE)

      Value  Global                              Global Defined In Module
      -----  --------------------------------   ------------------------
C:   0000011B  A$main$345                         main
C:   0000011B  C$main.c$21$0_0$15                 main
C:   0000011B  C$main.c$35$1_0$15                 main
C:   0000011B  G$sync_delay$0$0                   main
C:   0000011B  _sync_delay                        main
C:   0000011C  A$main$346                         main
C:   0000011D  A$main$347                         main
C:   0000011E  A$main$348                         main
C:   0000011F  A$main$349                         main
C:   00000120  A$main$350                         main
C:   00000121  A$main$351                         main
C:   00000122  A$main$352                         main
C:   00000123  A$main$353                         main
C:   00000124  A$main$354                         main
C:   00000125  A$main$355                         main
C:   00000126  A$main$384                         main
C:   00000126  C$main.c$36$1_0$15                 main
C:   00000126  C$main.c$45$1_0$17                 main
C:   00000126  C$main.c$48$1_0$17                 main
C:   00000126  G$main$0$0                         main
C:   00000126  XG$sync_delay$0$0                  main
C:   00000126  _main                              main
C:   00000129  A$main$388                         main
C:   00000129  C$main.c$49$1_0$17                 main
C:   0000012B  A$main$392                         main
C:   0000012B  C$main.c$51$1_0$17                 main
C:   0000012D  A$main$396                         main
C:   0000012D  C$main.c$52$1_0$17                 main
C:   0000012F  A$main$399                         main
C:   0000012F  C$main.c$55$1_0$17                 main
C:   00000132  A$main$400                         main
C:   00000133  A$main$401                         main
C:   00000134  A$main$404                         main
C:   00000134  C$main.c$56$1_0$17                 main
C:   00000137  A$main$405                         main
C:   00000138  A$main$406                         main
C:   0000013B  A$main$407                         main
C:   0000013C  A$main$410                         main
C:   0000013C  C$main.c$57$3_0$18                 main
C:   0000013F  A$main$412                         main
C:   00000141  A$main$413                         main
C:   00000143  A$main$414                         main
C:   00000145  A$main$417                         main
C:   00000145  C$main.c$59$5_0$20                 main
C:   00000148  A$main$419                         main
C:   0000014A  A$main$420                         main
C:   0000014C  A$main$421                         main
C:   0000014E  A$main$422                         main
C:   00000150  A$main$423                         main
C:   00000151  A$main$424                         main
ASxxxx Linker V03.00 + NoICE + sdld,  page 19.
Hexadecimal  [32-Bits]

Area                                    Addr        Size        Decimal Bytes (Attributes)
--------------------------------        ----        ----        ------- ----- ------------
CSEG                                0000011B    00000072 =         114. bytes (REL,CON,CODE)

      Value  Global                              Global Defined In Module
      -----  --------------------------------   ------------------------
C:   00000153  A$main$425                         main
C:   00000155  A$main$429                         main
C:   00000155  C$main.c$57$2_0$18                 main
C:   00000157  A$main$430                         main
C:   00000158  A$main$431                         main
C:   0000015A  A$main$432                         main
C:   0000015C  A$main$436                         main
C:   0000015C  C$main.c$65$1_0$17                 main
C:   0000015F  A$main$437                         main
C:   00000161  A$main$438                         main
C:   00000162  A$main$441                         main
C:   00000162  C$main.c$66$1_0$17                 main
C:   00000165  A$main$442                         main
C:   00000167  A$main$443                         main
C:   00000168  A$main$447                         main
C:   00000168  C$main.c$67$1_0$17                 main
C:   0000016A  A$main$450                         main
C:   0000016A  C$main.c$68$1_0$17                 main
C:   0000016D  A$main$451                         main
C:   0000016F  A$main$452                         main
C:   00000170  A$main$456                         main
C:   00000170  C$main.c$69$1_0$17                 main
C:   00000172  A$main$459                         main
C:   00000172  C$main.c$75$1_0$17                 main
C:   00000175  A$main$460                         main
C:   00000176  A$main$461                         main
C:   00000179  A$main$464                         main
C:   00000179  C$main.c$76$1_0$17                 main
C:   0000017C  A$main$465                         main
C:   0000017D  A$main$466                         main
C:   00000180  A$main$467                         main
C:   00000181  A$main$471                         main
C:   00000181  C$main.c$78$1_0$17                 main
C:   00000184  A$main$472                         main
C:   00000185  A$main$473                         main
C:   00000186  A$main$477                         main
C:   00000186  C$main.c$82$1_0$17                 main
C:   00000188  A$main$482                         main
C:   00000188  C$main.c$84$1_0$17                 main
C:   00000188  XG$main$0$0                        main
C:   00000189  __sdcc_external_startup            _startup

ASxxxx Linker V03.00 + NoICE + sdld,  page 20.
Hexadecimal  [32-Bits]

Area                                    Addr        Size        Decimal Bytes (Attributes)
--------------------------------        ----        ----        ------- ----- ------------
USB_INTERRUPTS                      0000018D    00000351 =         849. bytes (REL,CON,CODE)

      Value  Global                              Global Defined In Module
      -----  --------------------------------   ------------------------
C:   0000018D  A$interrupts$374                   interrupts
C:   0000018D  C$interrupts.c$71$0_0$36           interrupts
C:   0000018D  C$interrupts.c$82$1_0$36           interrupts
C:   0000018D  G$vectors$0$0                      interrupts
C:   0000018D  _vectors                           interrupts
C:   00000190  A$interrupts$375                   interrupts
C:   00000191  A$interrupts$376                   interrupts
C:   00000194  A$interrupts$377                   interrupts
C:   00000195  A$interrupts$378                   interrupts
C:   00000198  A$interrupts$379                   interrupts
C:   00000199  A$interrupts$405                   interrupts
C:   00000199  C$interrupts.c$83$1_0$36           interrupts
C:   00000199  C$interrupts.c$89$1_0$39           interrupts
C:   00000199  G$int0$0$0                         interrupts
C:   00000199  XG$int0$0$0                        interrupts
C:   00000199  XG$vectors$0$0                     interrupts
C:   00000199  _int0                              interrupts
C:   0000019A  A$interrupts$424                   interrupts
C:   0000019A  C$interrupts.c$90$1_0$42           interrupts
C:   0000019A  G$tim0$0$0                         interrupts
C:   0000019A  XG$tim0$0$0                        interrupts
C:   0000019A  _tim0                              interrupts
C:   0000019B  A$interrupts$443                   interrupts
C:   0000019B  C$interrupts.c$91$1_0$45           interrupts
C:   0000019B  G$int1$0$0                         interrupts
C:   0000019B  XG$int1$0$0                        interrupts
C:   0000019B  _int1                              interrupts
C:   0000019C  A$interrupts$462                   interrupts
C:   0000019C  C$interrupts.c$92$1_0$48           interrupts
C:   0000019C  G$tim1$0$0                         interrupts
C:   0000019C  XG$tim1$0$0                        interrupts
C:   0000019C  _tim1                              interrupts
C:   0000019D  A$interrupts$481                   interrupts
C:   0000019D  C$interrupts.c$93$1_0$51           interrupts
C:   0000019D  G$usart0$0$0                       interrupts
C:   0000019D  XG$usart0$0$0                      interrupts
C:   0000019D  _usart0                            interrupts
C:   0000019E  A$interrupts$500                   interrupts
C:   0000019E  C$interrupts.c$94$1_0$54           interrupts
C:   0000019E  G$tim2$0$0                         interrupts
C:   0000019E  XG$tim2$0$0                        interrupts
C:   0000019E  _tim2                              interrupts
C:   0000019F  A$interrupts$519                   interrupts
C:   0000019F  C$interrupts.c$95$1_0$57           interrupts
C:   0000019F  G$res$0$0                          interrupts
C:   0000019F  XG$res$0$0                         interrupts
C:   0000019F  _res                               interrupts
C:   000001A0  A$interrupts$538                   interrupts
C:   000001A0  C$interrupts.c$96$1_0$60           interrupts
C:   000001A0  G$usart1$0$0                       interrupts
ASxxxx Linker V03.00 + NoICE + sdld,  page 21.
Hexadecimal  [32-Bits]

Area                                    Addr        Size        Decimal Bytes (Attributes)
--------------------------------        ----        ----        ------- ----- ------------
USB_INTERRUPTS                      0000018D    00000351 =         849. bytes (REL,CON,CODE)

      Value  Global                              Global Defined In Module
      -----  --------------------------------   ------------------------
C:   000001A0  XG$usart1$0$0                      interrupts
C:   000001A0  _usart1                            interrupts
C:   000001A1  A$interrupts$557                   interrupts
C:   000001A1  C$interrupts.c$97$1_0$63           interrupts
C:   000001A1  G$usb$0$0                          interrupts
C:   000001A1  XG$usb$0$0                         interrupts
C:   000001A1  _usb                               interrupts
C:   000001A2  A$interrupts$576                   interrupts
C:   000001A2  C$interrupts.c$98$1_0$66           interrupts
C:   000001A2  G$i2c$0$0                          interrupts
C:   000001A2  XG$i2c$0$0                         interrupts
C:   000001A2  _i2c                               interrupts
C:   000001A3  A$interrupts$595                   interrupts
C:   000001A3  C$interrupts.c$99$1_0$69           interrupts
C:   000001A3  G$int4$0$0                         interrupts
C:   000001A3  XG$int4$0$0                        interrupts
C:   000001A3  _int4                              interrupts
C:   000001A4  A$interrupts$614                   interrupts
C:   000001A4  C$interrupts.c$100$1_0$72          interrupts
C:   000001A4  G$int5$0$0                         interrupts
C:   000001A4  XG$int5$0$0                        interrupts
C:   000001A4  _int5                              interrupts
C:   000001A5  A$interrupts$633                   interrupts
C:   000001A5  C$interrupts.c$101$1_0$75          interrupts
C:   000001A5  G$int6$0$0                         interrupts
C:   000001A5  XG$int6$0$0                        interrupts
C:   000001A5  _int6                              interrupts
C:   000001A6  A$interrupts$658                   interrupts
C:   000001A6  C$interrupts.c$103$1_0$77          interrupts
C:   000001A6  C$interrupts.c$105$1_0$77          interrupts
C:   000001A6  C$interrupts.c$109$1_0$77          interrupts
C:   000001A6  G$validEP$0$0                      interrupts
C:   000001A6  XG$validEP$0$0                     interrupts
C:   000001A6  _validEP                           interrupts
C:   000001A7  A$interrupts$673                   interrupts
C:   000001A7  C$interrupts.c$112$1_0$80          interrupts
C:   000001A7  C$interrupts.c$113$1_0$80          interrupts
C:   000001A7  G$get_status$0$0                   interrupts
C:   000001A7  XG$get_status$0$0                  interrupts
C:   000001A7  _get_status                        interrupts
C:   000001A8  A$interrupts$688                   interrupts
C:   000001A8  C$interrupts.c$114$1_0$82          interrupts
C:   000001A8  C$interrupts.c$115$1_0$82          interrupts
C:   000001A8  G$clear_feature$0$0                interrupts
C:   000001A8  XG$clear_feature$0$0               interrupts
C:   000001A8  _clear_feature                     interrupts
C:   000001A9  A$interrupts$702                   interrupts
C:   000001A9  C$interrupts.c$116$1_0$84          interrupts
C:   000001A9  C$interrupts.c$118$1_0$84          interrupts
C:   000001A9  G$reserve$0$0                      interrupts
C:   000001A9  _reserve                           interrupts
ASxxxx Linker V03.00 + NoICE + sdld,  page 22.
Hexadecimal  [32-Bits]

Area                                    Addr        Size        Decimal Bytes (Attributes)
--------------------------------        ----        ----        ------- ----- ------------
USB_INTERRUPTS                      0000018D    00000351 =         849. bytes (REL,CON,CODE)

      Value  Global                              Global Defined In Module
      -----  --------------------------------   ------------------------
C:   000001AB  A$interrupts$709                   interrupts
C:   000001AB  C$interrupts.c$119$1_0$84          interrupts
C:   000001AB  C$interrupts.c$120$1_0$84          interrupts
C:   000001AB  XG$reserve$0$0                     interrupts
C:   000001AC  A$interrupts$724                   interrupts
C:   000001AC  C$interrupts.c$121$1_0$86          interrupts
C:   000001AC  C$interrupts.c$122$1_0$86          interrupts
C:   000001AC  G$set_feature$0$0                  interrupts
C:   000001AC  XG$set_feature$0$0                 interrupts
C:   000001AC  _set_feature                       interrupts
C:   000001AD  A$interrupts$739                   interrupts
C:   000001AD  C$interrupts.c$123$1_0$88          interrupts
C:   000001AD  C$interrupts.c$124$1_0$88          interrupts
C:   000001AD  G$set_adr$0$0                      interrupts
C:   000001AD  XG$set_adr$0$0                     interrupts
C:   000001AD  _set_adr                           interrupts
C:   000001AE  A$interrupts$755                   interrupts
C:   000001AE  C$interrupts.c$125$1_0$90          interrupts
C:   000001AE  C$interrupts.c$127$1_0$90          interrupts
C:   000001AE  G$get_descriptor$0$0               interrupts
C:   000001AE  _get_descriptor                    interrupts
C:   000001B1  A$interrupts$756                   interrupts
C:   000001B4  A$interrupts$757                   interrupts
C:   000001B5  A$interrupts$758                   interrupts
C:   000001B6  A$interrupts$759                   interrupts
C:   000001B9  A$interrupts$760                   interrupts
C:   000001BB  A$interrupts$765                   interrupts
C:   000001BB  C$interrupts.c$129$2_0$91          interrupts
C:   000001BD  A$interrupts$768                   interrupts
C:   000001BD  C$interrupts.c$130$2_0$91          interrupts
C:   000001C0  A$interrupts$772                   interrupts
C:   000001C0  C$interrupts.c$132$1_0$90          interrupts
C:   000001C3  A$interrupts$773                   interrupts
C:   000001C6  A$interrupts$774                   interrupts
C:   000001C7  A$interrupts$775                   interrupts
C:   000001C8  A$interrupts$776                   interrupts
C:   000001C9  A$interrupts$777                   interrupts
C:   000001CA  A$interrupts$778                   interrupts
C:   000001CB  A$interrupts$779                   interrupts
C:   000001CE  A$interrupts$780                   interrupts
C:   000001D0  A$interrupts$782                   interrupts
C:   000001D3  A$interrupts$783                   interrupts
C:   000001D5  A$interrupts$785                   interrupts
C:   000001D8  A$interrupts$786                   interrupts
C:   000001DA  A$interrupts$791                   interrupts
C:   000001DA  C$interrupts.c$134$2_0$92          interrupts
C:   000001DC  A$interrupts$794                   interrupts
C:   000001DC  C$interrupts.c$135$2_0$92          interrupts
C:   000001DF  A$interrupts$798                   interrupts
C:   000001DF  C$interrupts.c$137$1_0$90          interrupts
C:   000001E2  A$interrupts$799                   interrupts
ASxxxx Linker V03.00 + NoICE + sdld,  page 23.
Hexadecimal  [32-Bits]

Area                                    Addr        Size        Decimal Bytes (Attributes)
--------------------------------        ----        ----        ------- ----- ------------
USB_INTERRUPTS                      0000018D    00000351 =         849. bytes (REL,CON,CODE)

      Value  Global                              Global Defined In Module
      -----  --------------------------------   ------------------------
C:   000001E4  A$interrupts$801                   interrupts
C:   000001E7  A$interrupts$805                   interrupts
C:   000001E7  C$interrupts.c$139$2_0$93          interrupts
C:   000001EA  A$interrupts$806                   interrupts
C:   000001ED  A$interrupts$807                   interrupts
C:   000001EE  A$interrupts$808                   interrupts
C:   000001EF  A$interrupts$809                   interrupts
C:   000001F0  A$interrupts$810                   interrupts
C:   000001F1  A$interrupts$811                   interrupts
C:   000001F4  A$interrupts$812                   interrupts
C:   000001F7  A$interrupts$813                   interrupts
C:   000001F8  A$interrupts$814                   interrupts
C:   000001F9  A$interrupts$815                   interrupts
C:   000001FA  A$interrupts$816                   interrupts
C:   000001FB  A$interrupts$817                   interrupts
C:   000001FC  A$interrupts$818                   interrupts
C:   000001FE  A$interrupts$819                   interrupts
C:   00000201  A$interrupts$820                   interrupts
C:   00000204  A$interrupts$821                   interrupts
C:   00000205  A$interrupts$822                   interrupts
C:   00000206  A$interrupts$823                   interrupts
C:   00000207  A$interrupts$824                   interrupts
C:   00000208  A$interrupts$825                   interrupts
C:   00000209  A$interrupts$826                   interrupts
C:   0000020A  A$interrupts$827                   interrupts
C:   0000020B  A$interrupts$828                   interrupts
C:   0000020C  A$interrupts$829                   interrupts
C:   0000020E  A$interrupts$833                   interrupts
C:   0000020E  C$interrupts.c$141$3_0$94          interrupts
C:   00000210  A$interrupts$836                   interrupts
C:   00000210  C$interrupts.c$142$3_0$94          interrupts
C:   00000213  A$interrupts$840                   interrupts
C:   00000213  C$interrupts.c$147$3_0$95          interrupts
C:   00000216  A$interrupts$841                   interrupts
C:   00000218  A$interrupts$842                   interrupts
C:   00000219  A$interrupts$845                   interrupts
C:   0000021B  A$interrupts$847                   interrupts
C:   0000021E  A$interrupts$848                   interrupts
C:   0000021F  A$interrupts$849                   interrupts
C:   00000220  A$interrupts$850                   interrupts
C:   00000221  A$interrupts$851                   interrupts
C:   00000222  A$interrupts$852                   interrupts
C:   00000223  A$interrupts$853                   interrupts
C:   00000224  A$interrupts$854                   interrupts
C:   00000226  A$interrupts$857                   interrupts
C:   00000226  C$interrupts.c$152$5_1$98          interrupts
C:   00000228  A$interrupts$858                   interrupts
C:   00000229  A$interrupts$859                   interrupts
C:   0000022A  A$interrupts$860                   interrupts
C:   0000022B  A$interrupts$861                   interrupts
C:   0000022D  A$interrupts$862                   interrupts
ASxxxx Linker V03.00 + NoICE + sdld,  page 24.
Hexadecimal  [32-Bits]

Area                                    Addr        Size        Decimal Bytes (Attributes)
--------------------------------        ----        ----        ------- ----- ------------
USB_INTERRUPTS                      0000018D    00000351 =         849. bytes (REL,CON,CODE)

      Value  Global                              Global Defined In Module
      -----  --------------------------------   ------------------------
C:   0000022E  A$interrupts$863                   interrupts
C:   0000022F  A$interrupts$864                   interrupts
C:   00000232  A$interrupts$865                   interrupts
C:   00000233  A$interrupts$866                   interrupts
C:   00000234  A$interrupts$867                   interrupts
C:   00000236  A$interrupts$868                   interrupts
C:   00000238  A$interrupts$869                   interrupts
C:   00000239  A$interrupts$872                   interrupts
C:   00000239  C$interrupts.c$150$4_1$97          interrupts
C:   0000023A  A$interrupts$873                   interrupts
C:   0000023C  A$interrupts$877                   interrupts
C:   0000023C  C$interrupts.c$154$3_1$96          interrupts
C:   0000023F  A$interrupts$880                   interrupts
C:   0000023F  C$interrupts.c$155$3_1$96          interrupts
C:   00000242  A$interrupts$881                   interrupts
C:   00000243  A$interrupts$882                   interrupts
C:   00000244  A$interrupts$885                   interrupts
C:   00000244  C$interrupts.c$156$3_1$96          interrupts
C:   00000247  A$interrupts$888                   interrupts
C:   00000247  C$interrupts.c$157$3_1$96          interrupts
C:   0000024A  A$interrupts$889                   interrupts
C:   0000024D  A$interrupts$890                   interrupts
C:   0000024E  A$interrupts$891                   interrupts
C:   0000024F  A$interrupts$892                   interrupts
C:   00000250  A$interrupts$893                   interrupts
C:   00000251  A$interrupts$894                   interrupts
C:   00000252  A$interrupts$895                   interrupts
C:   00000253  A$interrupts$896                   interrupts
C:   00000254  A$interrupts$897                   interrupts
C:   00000257  A$interrupts$898                   interrupts
C:   00000258  A$interrupts$901                   interrupts
C:   00000258  C$interrupts.c$158$3_1$96          interrupts
C:   0000025B  A$interrupts$904                   interrupts
C:   0000025B  C$interrupts.c$159$3_1$96          interrupts
C:   0000025E  A$interrupts$905                   interrupts
C:   0000025F  A$interrupts$906                   interrupts
C:   00000260  A$interrupts$910                   interrupts
C:   00000260  C$interrupts.c$160$3_1$96          interrupts
C:   00000262  A$interrupts$913                   interrupts
C:   00000262  C$interrupts.c$161$3_1$96          interrupts
C:   00000265  A$interrupts$917                   interrupts
C:   00000265  C$interrupts.c$164$1_0$90          interrupts
C:   00000268  A$interrupts$920                   interrupts
C:   00000268  C$interrupts.c$166$2_0$99          interrupts
C:   0000026B  A$interrupts$921                   interrupts
C:   0000026D  A$interrupts$922                   interrupts
C:   0000026E  A$interrupts$925                   interrupts
C:   0000026E  C$interrupts.c$167$2_0$99          interrupts
C:   00000271  A$interrupts$926                   interrupts
C:   00000274  A$interrupts$927                   interrupts
C:   00000275  A$interrupts$928                   interrupts
ASxxxx Linker V03.00 + NoICE + sdld,  page 25.
Hexadecimal  [32-Bits]

Area                                    Addr        Size        Decimal Bytes (Attributes)
--------------------------------        ----        ----        ------- ----- ------------
USB_INTERRUPTS                      0000018D    00000351 =         849. bytes (REL,CON,CODE)

      Value  Global                              Global Defined In Module
      -----  --------------------------------   ------------------------
C:   00000276  A$interrupts$929                   interrupts
C:   00000277  A$interrupts$930                   interrupts
C:   00000278  A$interrupts$931                   interrupts
C:   0000027B  A$interrupts$932                   interrupts
C:   0000027E  A$interrupts$933                   interrupts
C:   0000027F  A$interrupts$934                   interrupts
C:   00000280  A$interrupts$935                   interrupts
C:   00000281  A$interrupts$936                   interrupts
C:   00000282  A$interrupts$937                   interrupts
C:   00000283  A$interrupts$938                   interrupts
C:   00000284  A$interrupts$939                   interrupts
C:   00000286  A$interrupts$940                   interrupts
C:   00000289  A$interrupts$941                   interrupts
C:   0000028C  A$interrupts$942                   interrupts
C:   0000028D  A$interrupts$943                   interrupts
C:   0000028E  A$interrupts$944                   interrupts
C:   0000028F  A$interrupts$945                   interrupts
C:   00000290  A$interrupts$946                   interrupts
C:   00000291  A$interrupts$947                   interrupts
C:   00000292  A$interrupts$948                   interrupts
C:   00000293  A$interrupts$949                   interrupts
C:   00000295  A$interrupts$953                   interrupts
C:   00000295  C$interrupts.c$169$3_0$100         interrupts
C:   00000297  A$interrupts$956                   interrupts
C:   00000297  C$interrupts.c$170$3_0$100         interrupts
C:   0000029A  A$interrupts$960                   interrupts
C:   0000029A  C$interrupts.c$174$3_0$101         interrupts
C:   0000029D  A$interrupts$961                   interrupts
C:   0000029F  A$interrupts$962                   interrupts
C:   000002A0  A$interrupts$965                   interrupts
C:   000002A0  C$interrupts.c$175$3_0$101         interrupts
C:   000002A2  A$interrupts$966                   interrupts
C:   000002A4  A$interrupts$967                   interrupts
C:   000002A7  A$interrupts$968                   interrupts
C:   000002A8  A$interrupts$969                   interrupts
C:   000002A9  A$interrupts$973                   interrupts
C:   000002A9  C$interrupts.c$176$3_0$101         interrupts
C:   000002AB  A$interrupts$976                   interrupts
C:   000002AB  C$interrupts.c$177$3_0$101         interrupts
C:   000002AD  A$interrupts$980                   interrupts
C:   000002AD  C$interrupts.c$180$1_0$90          interrupts
C:   000002B0  A$interrupts$983                   interrupts
C:   000002B0  C$interrupts.c$182$2_0$102         interrupts
C:   000002B2  A$interrupts$984                   interrupts
C:   000002B4  A$interrupts$985                   interrupts
C:   000002B5  A$interrupts$986                   interrupts
C:   000002B6  A$interrupts$987                   interrupts
C:   000002B8  A$interrupts$988                   interrupts
C:   000002B9  A$interrupts$989                   interrupts
C:   000002BB  A$interrupts$990                   interrupts
C:   000002BD  A$interrupts$991                   interrupts
ASxxxx Linker V03.00 + NoICE + sdld,  page 26.
Hexadecimal  [32-Bits]

Area                                    Addr        Size        Decimal Bytes (Attributes)
--------------------------------        ----        ----        ------- ----- ------------
USB_INTERRUPTS                      0000018D    00000351 =         849. bytes (REL,CON,CODE)

      Value  Global                              Global Defined In Module
      -----  --------------------------------   ------------------------
C:   000002BE  A$interrupts$992                   interrupts
C:   000002C0  A$interrupts$993                   interrupts
C:   000002C2  A$interrupts$994                   interrupts
C:   000002C4  A$interrupts$995                   interrupts
C:   000002C5  A$interrupts$996                   interrupts
C:   000002C6  A$interrupts$997                   interrupts
C:   000002C8  A$interrupts$998                   interrupts
C:   000002C9  A$interrupts$999                   interrupts
C:   000002CB  A$interrupts$1000                  interrupts
C:   000002CD  A$interrupts$1001                  interrupts
C:   000002CE  A$interrupts$1002                  interrupts
C:   000002D0  A$interrupts$1005                  interrupts
C:   000002D0  C$interrupts.c$184$3_0$103         interrupts
C:   000002D3  A$interrupts$1006                  interrupts
C:   000002D5  A$interrupts$1007                  interrupts
C:   000002D6  A$interrupts$1010                  interrupts
C:   000002D6  C$interrupts.c$185$3_0$103         interrupts
C:   000002D8  A$interrupts$1011                  interrupts
C:   000002DA  A$interrupts$1012                  interrupts
C:   000002DD  A$interrupts$1013                  interrupts
C:   000002DE  A$interrupts$1014                  interrupts
C:   000002DF  A$interrupts$1018                  interrupts
C:   000002DF  C$interrupts.c$186$3_0$103         interrupts
C:   000002E1  A$interrupts$1021                  interrupts
C:   000002E1  C$interrupts.c$187$3_0$103         interrupts
C:   000002E3  A$interrupts$1025                  interrupts
C:   000002E3  C$interrupts.c$189$2_0$102         interrupts
C:   000002E6  A$interrupts$1026                  interrupts
C:   000002E9  A$interrupts$1027                  interrupts
C:   000002EA  A$interrupts$1028                  interrupts
C:   000002EB  A$interrupts$1029                  interrupts
C:   000002EC  A$interrupts$1030                  interrupts
C:   000002ED  A$interrupts$1031                  interrupts
C:   000002F0  A$interrupts$1034                  interrupts
C:   000002F0  C$interrupts.c$191$3_0$104         interrupts
C:   000002F3  A$interrupts$1035                  interrupts
C:   000002F5  A$interrupts$1036                  interrupts
C:   000002F6  A$interrupts$1039                  interrupts
C:   000002F6  C$interrupts.c$192$3_0$104         interrupts
C:   000002F8  A$interrupts$1040                  interrupts
C:   000002FA  A$interrupts$1041                  interrupts
C:   000002FD  A$interrupts$1042                  interrupts
C:   000002FE  A$interrupts$1043                  interrupts
C:   000002FF  A$interrupts$1047                  interrupts
C:   000002FF  C$interrupts.c$193$3_0$104         interrupts
C:   00000301  A$interrupts$1050                  interrupts
C:   00000301  C$interrupts.c$194$3_0$104         interrupts
C:   00000303  A$interrupts$1054                  interrupts
C:   00000303  C$interrupts.c$196$2_0$102         interrupts
C:   00000306  A$interrupts$1057                  interrupts
C:   00000306  C$interrupts.c$198$3_0$105         interrupts
ASxxxx Linker V03.00 + NoICE + sdld,  page 27.
Hexadecimal  [32-Bits]

Area                                    Addr        Size        Decimal Bytes (Attributes)
--------------------------------        ----        ----        ------- ----- ------------
USB_INTERRUPTS                      0000018D    00000351 =         849. bytes (REL,CON,CODE)

      Value  Global                              Global Defined In Module
      -----  --------------------------------   ------------------------
C:   00000309  A$interrupts$1058                  interrupts
C:   0000030B  A$interrupts$1059                  interrupts
C:   0000030C  A$interrupts$1062                  interrupts
C:   0000030C  C$interrupts.c$199$3_0$105         interrupts
C:   0000030E  A$interrupts$1063                  interrupts
C:   00000310  A$interrupts$1064                  interrupts
C:   00000313  A$interrupts$1065                  interrupts
C:   00000314  A$interrupts$1066                  interrupts
C:   00000315  A$interrupts$1070                  interrupts
C:   00000315  C$interrupts.c$200$3_0$105         interrupts
C:   00000317  A$interrupts$1073                  interrupts
C:   00000317  C$interrupts.c$201$3_0$105         interrupts
C:   00000319  A$interrupts$1078                  interrupts
C:   00000319  C$interrupts.c$203$2_0$102         interrupts
C:   0000031B  A$interrupts$1086                  interrupts
C:   0000031B  C$interrupts.c$204$2_0$102         interrupts
C:   0000031B  C$interrupts.c$206$1_0$90          interrupts
C:   0000031B  XG$get_descriptor$0$0              interrupts
C:   0000031C  A$interrupts$1100                  interrupts
C:   0000031C  C$interrupts.c$208$1_0$107         interrupts
C:   0000031C  C$interrupts.c$209$1_0$107         interrupts
C:   0000031C  G$set_descriptor$0$0               interrupts
C:   0000031C  _set_descriptor                    interrupts
C:   0000031E  A$interrupts$1105                  interrupts
C:   0000031E  C$interrupts.c$210$1_0$107         interrupts
C:   0000031E  XG$set_descriptor$0$0              interrupts
C:   0000031F  A$interrupts$1118                  interrupts
C:   0000031F  C$interrupts.c$211$1_0$109         interrupts
C:   0000031F  G$get_configurated$0$0             interrupts
C:   0000031F  XG$get_configurated$0$0            interrupts
C:   0000031F  _get_configurated                  interrupts
C:   00000320  A$interrupts$1131                  interrupts
C:   00000320  C$interrupts.c$212$1_0$111         interrupts
C:   00000320  C$interrupts.c$214$1_0$111         interrupts
C:   00000320  G$set_configurated$0$0             interrupts
C:   00000320  _set_configurated                  interrupts
C:   00000323  A$interrupts$1132                  interrupts
C:   00000326  A$interrupts$1133                  interrupts
C:   00000327  A$interrupts$1134                  interrupts
C:   00000328  A$interrupts$1135                  interrupts
C:   0000032B  A$interrupts$1136                  interrupts
C:   0000032E  A$interrupts$1137                  interrupts
C:   0000032F  A$interrupts$1138                  interrupts
C:   00000330  A$interrupts$1139                  interrupts
C:   00000331  A$interrupts$1140                  interrupts
C:   00000332  A$interrupts$1141                  interrupts
C:   00000333  A$interrupts$1142                  interrupts
C:   00000334  A$interrupts$1143                  interrupts
C:   00000335  A$interrupts$1144                  interrupts
C:   00000337  A$interrupts$1145                  interrupts
C:   0000033A  A$interrupts$1146                  interrupts
ASxxxx Linker V03.00 + NoICE + sdld,  page 28.
Hexadecimal  [32-Bits]

Area                                    Addr        Size        Decimal Bytes (Attributes)
--------------------------------        ----        ----        ------- ----- ------------
USB_INTERRUPTS                      0000018D    00000351 =         849. bytes (REL,CON,CODE)

      Value  Global                              Global Defined In Module
      -----  --------------------------------   ------------------------
C:   0000033D  A$interrupts$1147                  interrupts
C:   0000033E  A$interrupts$1148                  interrupts
C:   0000033F  A$interrupts$1149                  interrupts
C:   00000340  A$interrupts$1150                  interrupts
C:   00000341  A$interrupts$1151                  interrupts
C:   00000342  A$interrupts$1152                  interrupts
C:   00000343  A$interrupts$1153                  interrupts
C:   00000344  A$interrupts$1154                  interrupts
C:   00000345  A$interrupts$1155                  interrupts
C:   00000347  A$interrupts$1156                  interrupts
C:   0000034A  A$interrupts$1157                  interrupts
C:   0000034D  A$interrupts$1158                  interrupts
C:   0000034E  A$interrupts$1159                  interrupts
C:   0000034F  A$interrupts$1160                  interrupts
C:   00000350  A$interrupts$1161                  interrupts
C:   00000351  A$interrupts$1162                  interrupts
C:   00000352  A$interrupts$1163                  interrupts
C:   00000354  A$interrupts$1164                  interrupts
C:   00000357  A$interrupts$1165                  interrupts
C:   0000035A  A$interrupts$1166                  interrupts
C:   0000035B  A$interrupts$1167                  interrupts
C:   0000035C  A$interrupts$1168                  interrupts
C:   0000035D  A$interrupts$1169                  interrupts
C:   0000035E  A$interrupts$1170                  interrupts
C:   0000035F  A$interrupts$1171                  interrupts
C:   00000360  A$interrupts$1172                  interrupts
C:   00000362  A$interrupts$1175                  interrupts
C:   00000362  C$interrupts.c$215$1_0$111         interrupts
C:   00000365  A$interrupts$1176                  interrupts
C:   00000368  A$interrupts$1177                  interrupts
C:   00000369  A$interrupts$1178                  interrupts
C:   0000036A  A$interrupts$1179                  interrupts
C:   0000036B  A$interrupts$1180                  interrupts
C:   0000036C  A$interrupts$1181                  interrupts
C:   0000036D  A$interrupts$1182                  interrupts
C:   0000036E  A$interrupts$1183                  interrupts
C:   00000370  A$interrupts$1187                  interrupts
C:   00000370  C$interrupts.c$217$2_0$112         interrupts
C:   00000372  A$interrupts$1190                  interrupts
C:   00000372  C$interrupts.c$218$2_0$112         interrupts
C:   00000374  A$interrupts$1194                  interrupts
C:   00000374  C$interrupts.c$220$1_0$111         interrupts
C:   00000376  A$interrupts$1195                  interrupts
C:   00000378  A$interrupts$1196                  interrupts
C:   00000379  A$interrupts$1197                  interrupts
C:   0000037A  A$interrupts$1198                  interrupts
C:   0000037C  A$interrupts$1199                  interrupts
C:   0000037D  A$interrupts$1200                  interrupts
C:   0000037F  A$interrupts$1201                  interrupts
C:   00000381  A$interrupts$1202                  interrupts
C:   00000382  A$interrupts$1203                  interrupts
ASxxxx Linker V03.00 + NoICE + sdld,  page 29.
Hexadecimal  [32-Bits]

Area                                    Addr        Size        Decimal Bytes (Attributes)
--------------------------------        ----        ----        ------- ----- ------------
USB_INTERRUPTS                      0000018D    00000351 =         849. bytes (REL,CON,CODE)

      Value  Global                              Global Defined In Module
      -----  --------------------------------   ------------------------
C:   00000383  A$interrupts$1204                  interrupts
C:   00000385  A$interrupts$1207                  interrupts
C:   00000385  C$interrupts.c$222$2_0$113         interrupts
C:   00000388  A$interrupts$1208                  interrupts
C:   0000038A  A$interrupts$1213                  interrupts
C:   0000038A  C$interrupts.c$224$3_0$114         interrupts
C:   0000038C  A$interrupts$1216                  interrupts
C:   0000038C  C$interrupts.c$225$3_0$114         interrupts
C:   0000038E  A$interrupts$1221                  interrupts
C:   0000038E  C$interrupts.c$229$3_0$115         interrupts
C:   00000390  A$interrupts$1224                  interrupts
C:   00000390  C$interrupts.c$230$3_0$115         interrupts
C:   00000392  A$interrupts$1225                  interrupts
C:   00000394  A$interrupts$1226                  interrupts
C:   00000395  A$interrupts$1227                  interrupts
C:   00000396  A$interrupts$1231                  interrupts
C:   00000396  C$interrupts.c$231$3_0$115         interrupts
C:   00000398  A$interrupts$1237                  interrupts
C:   00000398  C$interrupts.c$235$1_0$111         interrupts
C:   00000398  XG$set_configurated$0$0            interrupts
C:   00000399  A$interrupts$1250                  interrupts
C:   00000399  C$interrupts.c$236$1_0$117         interrupts
C:   00000399  G$get_interface$0$0                interrupts
C:   00000399  XG$get_interface$0$0               interrupts
C:   00000399  _get_interface                     interrupts
C:   0000039A  A$interrupts$1263                  interrupts
C:   0000039A  C$interrupts.c$237$1_0$119         interrupts
C:   0000039A  G$set_interface$0$0                interrupts
C:   0000039A  XG$set_interface$0$0               interrupts
C:   0000039A  _set_interface                     interrupts
C:   0000039B  A$interrupts$1276                  interrupts
C:   0000039B  C$interrupts.c$238$1_0$121         interrupts
C:   0000039B  G$synch_frame$0$0                  interrupts
C:   0000039B  XG$synch_frame$0$0                 interrupts
C:   0000039B  _synch_frame                       interrupts
C:   0000039C  A$interrupts$1291                  interrupts
C:   0000039C  C$interrupts.c$243$1_0$124         interrupts
C:   0000039C  C$interrupts.c$246$1_0$124         interrupts
C:   0000039C  G$SUDAV$0$0                        interrupts
C:   0000039C  _SUDAV                             interrupts
C:   0000039F  A$interrupts$1294                  interrupts
C:   0000039F  C$interrupts.c$247$1_0$124         interrupts
C:   000003A2  A$interrupts$1295                  interrupts
C:   000003A4  A$interrupts$1296                  interrupts
C:   000003A5  A$interrupts$1299                  interrupts
C:   000003A5  C$interrupts.c$253$1_0$124         interrupts
C:   000003A8  A$interrupts$1300                  interrupts
C:   000003AB  A$interrupts$1303                  interrupts
C:   000003AB  C$interrupts.c$254$1_0$124         interrupts
C:   000003AD  A$interrupts$1304                  interrupts
C:   000003AF  A$interrupts$1306                  interrupts
ASxxxx Linker V03.00 + NoICE + sdld,  page 30.
Hexadecimal  [32-Bits]

Area                                    Addr        Size        Decimal Bytes (Attributes)
--------------------------------        ----        ----        ------- ----- ------------
USB_INTERRUPTS                      0000018D    00000351 =         849. bytes (REL,CON,CODE)

      Value  Global                              Global Defined In Module
      -----  --------------------------------   ------------------------
C:   000003B0  A$interrupts$1307                  interrupts
C:   000003B1  A$interrupts$1308                  interrupts
C:   000003B3  A$interrupts$1309                  interrupts
C:   000003B4  A$interrupts$1310                  interrupts
C:   000003B6  A$interrupts$1311                  interrupts
C:   000003B8  A$interrupts$1312                  interrupts
C:   000003BA  A$interrupts$1315                  interrupts
C:   000003BA  C$interrupts.c$256$3_0$126         interrupts
C:   000003BB  A$interrupts$1316                  interrupts
C:   000003BD  A$interrupts$1317                  interrupts
C:   000003BE  A$interrupts$1318                  interrupts
C:   000003BF  A$interrupts$1319                  interrupts
C:   000003C1  A$interrupts$1320                  interrupts
C:   000003C2  A$interrupts$1321                  interrupts
C:   000003C4  A$interrupts$1322                  interrupts
C:   000003C5  A$interrupts$1323                  interrupts
C:   000003C7  A$interrupts$1324                  interrupts
C:   000003C9  A$interrupts$1325                  interrupts
C:   000003CA  A$interrupts$1326                  interrupts
C:   000003CC  A$interrupts$1327                  interrupts
C:   000003CD  A$interrupts$1328                  interrupts
C:   000003CE  A$interrupts$1329                  interrupts
C:   000003D0  A$interrupts$1330                  interrupts
C:   000003D2  A$interrupts$1331                  interrupts
C:   000003D3  A$interrupts$1334                  interrupts
C:   000003D3  C$interrupts.c$254$2_0$125         interrupts
C:   000003D4  A$interrupts$1335                  interrupts
C:   000003D7  A$interrupts$1336                  interrupts
C:   000003D8  A$interrupts$1337                  interrupts
C:   000003DA  A$interrupts$1342                  interrupts
C:   000003DA  C$interrupts.c$265$1_0$124         interrupts
C:   000003DC  A$interrupts$1345                  interrupts
C:   000003DC  C$interrupts.c$267$1_0$124         interrupts
C:   000003DF  A$interrupts$1346                  interrupts
C:   000003E2  A$interrupts$1347                  interrupts
C:   000003E3  A$interrupts$1348                  interrupts
C:   000003E4  A$interrupts$1349                  interrupts
C:   000003E6  A$interrupts$1350                  interrupts
C:   000003E8  A$interrupts$1351                  interrupts
C:   000003EB  A$interrupts$1353                  interrupts
C:   000003EE  A$interrupts$1354                  interrupts
C:   000003F1  A$interrupts$1355                  interrupts
C:   000003F2  A$interrupts$1356                  interrupts
C:   000003F3  A$interrupts$1357                  interrupts
C:   000003F4  A$interrupts$1358                  interrupts
C:   000003F7  A$interrupts$1360                  interrupts
C:   000003F9  A$interrupts$1363                  interrupts
C:   000003F9  C$interrupts.c$270$2_0$127         interrupts
C:   000003FA  A$interrupts$1364                  interrupts
C:   000003FB  A$interrupts$1365                  interrupts
C:   000003FD  A$interrupts$1366                  interrupts
ASxxxx Linker V03.00 + NoICE + sdld,  page 31.
Hexadecimal  [32-Bits]

Area                                    Addr        Size        Decimal Bytes (Attributes)
--------------------------------        ----        ----        ------- ----- ------------
USB_INTERRUPTS                      0000018D    00000351 =         849. bytes (REL,CON,CODE)

      Value  Global                              Global Defined In Module
      -----  --------------------------------   ------------------------
C:   000003FE  A$interrupts$1367                  interrupts
C:   00000400  A$interrupts$1368                  interrupts
C:   00000401  A$interrupts$1369                  interrupts
C:   00000403  A$interrupts$1370                  interrupts
C:   00000405  A$interrupts$1371                  interrupts
C:   00000407  A$interrupts$1372                  interrupts
C:   00000409  A$interrupts$1373                  interrupts
C:   0000040B  A$interrupts$1374                  interrupts
C:   0000040E  A$interrupts$1375                  interrupts
C:   00000410  A$interrupts$1376                  interrupts
C:   00000412  A$interrupts$1379                  interrupts
C:   00000412  C$interrupts.c$272$2_0$127         interrupts
C:   00000415  A$interrupts$1382                  interrupts
C:   00000415  C$interrupts.c$274$3_0$128         interrupts
C:   00000418  A$interrupts$1383                  interrupts
C:   0000041A  A$interrupts$1384                  interrupts
C:   0000041B  A$interrupts$1387                  interrupts
C:   0000041B  C$interrupts.c$275$3_0$128         interrupts
C:   0000041C  A$interrupts$1391                  interrupts
C:   0000041C  C$interrupts.c$278$2_0$127         interrupts
C:   0000041F  A$interrupts$1392                  interrupts
C:   00000420  A$interrupts$1393                  interrupts
C:   00000423  A$interrupts$1394                  interrupts
C:   00000424  A$interrupts$1397                  interrupts
C:   00000424  C$interrupts.c$281$2_0$127         interrupts
C:   00000427  A$interrupts$1398                  interrupts
C:   0000042A  A$interrupts$1399                  interrupts
C:   0000042B  A$interrupts$1400                  interrupts
C:   0000042C  A$interrupts$1401                  interrupts
C:   0000042F  A$interrupts$1404                  interrupts
C:   0000042F  C$interrupts.c$283$3_0$129         interrupts
C:   00000430  A$interrupts$1411                  interrupts
C:   00000430  C$interrupts.c$286$2_0$127         interrupts
C:   00000430  C$interrupts.c$288$3_0$130         interrupts
C:   00000433  A$interrupts$1412                  interrupts
C:   00000435  A$interrupts$1416                  interrupts
C:   00000435  C$interrupts.c$289$3_0$130         interrupts
C:   00000436  A$interrupts$1417                  interrupts
C:   00000438  A$interrupts$1421                  interrupts
C:   00000438  C$interrupts.c$293$3_0$131         interrupts
C:   0000043B  A$interrupts$1424                  interrupts
C:   0000043B  C$interrupts.c$294$3_0$131         interrupts
C:   0000043E  A$interrupts$1425                  interrupts
C:   00000441  A$interrupts$1426                  interrupts
C:   00000442  A$interrupts$1427                  interrupts
C:   00000443  A$interrupts$1428                  interrupts
C:   00000444  A$interrupts$1429                  interrupts
C:   00000445  A$interrupts$1430                  interrupts
C:   00000446  A$interrupts$1431                  interrupts
C:   00000447  A$interrupts$1432                  interrupts
C:   00000448  A$interrupts$1433                  interrupts
ASxxxx Linker V03.00 + NoICE + sdld,  page 32.
Hexadecimal  [32-Bits]

Area                                    Addr        Size        Decimal Bytes (Attributes)
--------------------------------        ----        ----        ------- ----- ------------
USB_INTERRUPTS                      0000018D    00000351 =         849. bytes (REL,CON,CODE)

      Value  Global                              Global Defined In Module
      -----  --------------------------------   ------------------------
C:   00000449  A$interrupts$1434                  interrupts
C:   0000044C  A$interrupts$1435                  interrupts
C:   0000044D  A$interrupts$1438                  interrupts
C:   0000044D  C$interrupts.c$295$3_0$131         interrupts
C:   00000450  A$interrupts$1441                  interrupts
C:   00000450  C$interrupts.c$296$3_0$131         interrupts
C:   00000453  A$interrupts$1442                  interrupts
C:   00000456  A$interrupts$1443                  interrupts
C:   00000457  A$interrupts$1444                  interrupts
C:   00000458  A$interrupts$1445                  interrupts
C:   00000459  A$interrupts$1446                  interrupts
C:   0000045A  A$interrupts$1447                  interrupts
C:   0000045B  A$interrupts$1448                  interrupts
C:   0000045C  A$interrupts$1449                  interrupts
C:   0000045D  A$interrupts$1450                  interrupts
C:   00000460  A$interrupts$1451                  interrupts
C:   00000461  A$interrupts$1454                  interrupts
C:   00000461  C$interrupts.c$297$3_0$131         interrupts
C:   00000464  A$interrupts$1455                  interrupts
C:   00000466  A$interrupts$1460                  interrupts
C:   00000466  C$interrupts.c$304$2_0$132         interrupts
C:   00000468  A$interrupts$1463                  interrupts
C:   00000468  C$interrupts.c$305$2_0$132         interrupts
C:   0000046B  A$interrupts$1464                  interrupts
C:   0000046D  A$interrupts$1465                  interrupts
C:   0000046E  A$interrupts$1468                  interrupts
C:   0000046E  C$interrupts.c$306$2_0$132         interrupts
C:   0000046F  A$interrupts$1472                  interrupts
C:   0000046F  C$interrupts.c$308$1_0$124         interrupts
C:   00000470  A$interrupts$1477                  interrupts
C:   00000470  C$interrupts.c$309$1_0$124         interrupts
C:   00000470  XG$SUDAV$0$0                       interrupts
C:   00000471  A$interrupts$1490                  interrupts
C:   00000471  C$interrupts.c$310$1_0$135         interrupts
C:   00000471  G$SOF$0$0                          interrupts
C:   00000471  XG$SOF$0$0                         interrupts
C:   00000471  _SOF                               interrupts
C:   00000472  A$interrupts$1503                  interrupts
C:   00000472  C$interrupts.c$311$1_0$138         interrupts
C:   00000472  G$SUTOC$0$0                        interrupts
C:   00000472  XG$SUTOC$0$0                       interrupts
C:   00000472  _SUTOC                             interrupts
C:   00000473  A$interrupts$1516                  interrupts
C:   00000473  C$interrupts.c$312$1_0$141         interrupts
C:   00000473  G$SUSPEND$0$0                      interrupts
C:   00000473  XG$SUSPEND$0$0                     interrupts
C:   00000473  _SUSPEND                           interrupts
C:   00000474  A$interrupts$1529                  interrupts
C:   00000474  C$interrupts.c$313$1_0$144         interrupts
C:   00000474  G$USB_RESET$0$0                    interrupts
C:   00000474  XG$USB_RESET$0$0                   interrupts
ASxxxx Linker V03.00 + NoICE + sdld,  page 33.
Hexadecimal  [32-Bits]

Area                                    Addr        Size        Decimal Bytes (Attributes)
--------------------------------        ----        ----        ------- ----- ------------
USB_INTERRUPTS                      0000018D    00000351 =         849. bytes (REL,CON,CODE)

      Value  Global                              Global Defined In Module
      -----  --------------------------------   ------------------------
C:   00000474  _USB_RESET                         interrupts
C:   00000475  A$interrupts$1542                  interrupts
C:   00000475  C$interrupts.c$314$1_0$147         interrupts
C:   00000475  G$HISPEED$0$0                      interrupts
C:   00000475  XG$HISPEED$0$0                     interrupts
C:   00000475  _HISPEED                           interrupts
C:   00000476  A$interrupts$1555                  interrupts
C:   00000476  C$interrupts.c$315$1_0$150         interrupts
C:   00000476  G$EP0ACK$0$0                       interrupts
C:   00000476  XG$EP0ACK$0$0                      interrupts
C:   00000476  _EP0ACK                            interrupts
C:   00000477  A$interrupts$1568                  interrupts
C:   00000477  C$interrupts.c$316$1_0$153         interrupts
C:   00000477  G$_reserved_$0$0                   interrupts
C:   00000477  XG$_reserved_$0$0                  interrupts
C:   00000477  __reserved_                        interrupts
C:   00000478  A$interrupts$1581                  interrupts
C:   00000478  C$interrupts.c$317$1_0$156         interrupts
C:   00000478  G$EP0IN$0$0                        interrupts
C:   00000478  XG$EP0IN$0$0                       interrupts
C:   00000478  _EP0IN                             interrupts
C:   00000479  A$interrupts$1594                  interrupts
C:   00000479  C$interrupts.c$318$1_0$159         interrupts
C:   00000479  G$EP0OUT$0$0                       interrupts
C:   00000479  XG$EP0OUT$0$0                      interrupts
C:   00000479  _EP0OUT                            interrupts
C:   0000047A  A$interrupts$1607                  interrupts
C:   0000047A  C$interrupts.c$319$1_0$162         interrupts
C:   0000047A  G$EP1IN$0$0                        interrupts
C:   0000047A  XG$EP1IN$0$0                       interrupts
C:   0000047A  _EP1IN                             interrupts
C:   0000047B  A$interrupts$1620                  interrupts
C:   0000047B  C$interrupts.c$320$1_0$165         interrupts
C:   0000047B  G$EP1OUT$0$0                       interrupts
C:   0000047B  XG$EP1OUT$0$0                      interrupts
C:   0000047B  _EP1OUT                            interrupts
C:   0000047C  A$interrupts$1633                  interrupts
C:   0000047C  C$interrupts.c$321$1_0$168         interrupts
C:   0000047C  G$EP2$0$0                          interrupts
C:   0000047C  XG$EP2$0$0                         interrupts
C:   0000047C  _EP2                               interrupts
C:   0000047D  A$interrupts$1646                  interrupts
C:   0000047D  C$interrupts.c$322$1_0$171         interrupts
C:   0000047D  G$EP4$0$0                          interrupts
C:   0000047D  XG$EP4$0$0                         interrupts
C:   0000047D  _EP4                               interrupts
C:   0000047E  A$interrupts$1659                  interrupts
C:   0000047E  C$interrupts.c$323$1_0$174         interrupts
C:   0000047E  G$EP6$0$0                          interrupts
C:   0000047E  XG$EP6$0$0                         interrupts
C:   0000047E  _EP6                               interrupts
ASxxxx Linker V03.00 + NoICE + sdld,  page 34.
Hexadecimal  [32-Bits]

Area                                    Addr        Size        Decimal Bytes (Attributes)
--------------------------------        ----        ----        ------- ----- ------------
USB_INTERRUPTS                      0000018D    00000351 =         849. bytes (REL,CON,CODE)

      Value  Global                              Global Defined In Module
      -----  --------------------------------   ------------------------
C:   0000047F  A$interrupts$1672                  interrupts
C:   0000047F  C$interrupts.c$324$1_0$177         interrupts
C:   0000047F  G$EP8$0$0                          interrupts
C:   0000047F  XG$EP8$0$0                         interrupts
C:   0000047F  _EP8                               interrupts
C:   00000480  A$interrupts$1685                  interrupts
C:   00000480  C$interrupts.c$325$1_0$180         interrupts
C:   00000480  G$IBN$0$0                          interrupts
C:   00000480  XG$IBN$0$0                         interrupts
C:   00000480  _IBN                               interrupts
C:   00000481  A$interrupts$1698                  interrupts
C:   00000481  C$interrupts.c$326$1_0$183         interrupts
C:   00000481  G$_reserved2_$0$0                  interrupts
C:   00000481  XG$_reserved2_$0$0                 interrupts
C:   00000481  __reserved2_                       interrupts
C:   00000482  A$interrupts$1711                  interrupts
C:   00000482  C$interrupts.c$327$1_0$186         interrupts
C:   00000482  G$EP0PING$0$0                      interrupts
C:   00000482  XG$EP0PING$0$0                     interrupts
C:   00000482  _EP0PING                           interrupts
C:   00000483  A$interrupts$1724                  interrupts
C:   00000483  C$interrupts.c$328$1_0$189         interrupts
C:   00000483  G$EP1PING$0$0                      interrupts
C:   00000483  XG$EP1PING$0$0                     interrupts
C:   00000483  _EP1PING                           interrupts
C:   00000484  A$interrupts$1737                  interrupts
C:   00000484  C$interrupts.c$329$1_0$192         interrupts
C:   00000484  G$EP2PING$0$0                      interrupts
C:   00000484  XG$EP2PING$0$0                     interrupts
C:   00000484  _EP2PING                           interrupts
C:   00000485  A$interrupts$1750                  interrupts
C:   00000485  C$interrupts.c$330$1_0$195         interrupts
C:   00000485  G$EP4PING$0$0                      interrupts
C:   00000485  XG$EP4PING$0$0                     interrupts
C:   00000485  _EP4PING                           interrupts
C:   00000486  A$interrupts$1763                  interrupts
C:   00000486  C$interrupts.c$331$1_0$198         interrupts
C:   00000486  G$EP6PING$0$0                      interrupts
C:   00000486  XG$EP6PING$0$0                     interrupts
C:   00000486  _EP6PING                           interrupts
C:   00000487  A$interrupts$1776                  interrupts
C:   00000487  C$interrupts.c$332$1_0$201         interrupts
C:   00000487  G$EP8PING$0$0                      interrupts
C:   00000487  XG$EP8PING$0$0                     interrupts
C:   00000487  _EP8PING                           interrupts
C:   00000488  A$interrupts$1789                  interrupts
C:   00000488  C$interrupts.c$333$1_0$204         interrupts
C:   00000488  G$ERRLIMIT$0$0                     interrupts
C:   00000488  XG$ERRLIMIT$0$0                    interrupts
C:   00000488  _ERRLIMIT                          interrupts
C:   00000489  A$interrupts$1802                  interrupts
ASxxxx Linker V03.00 + NoICE + sdld,  page 35.
Hexadecimal  [32-Bits]

Area                                    Addr        Size        Decimal Bytes (Attributes)
--------------------------------        ----        ----        ------- ----- ------------
USB_INTERRUPTS                      0000018D    00000351 =         849. bytes (REL,CON,CODE)

      Value  Global                              Global Defined In Module
      -----  --------------------------------   ------------------------
C:   00000489  C$interrupts.c$334$1_0$207         interrupts
C:   00000489  G$_reserved3_$0$0                  interrupts
C:   00000489  XG$_reserved3_$0$0                 interrupts
C:   00000489  __reserved3_                       interrupts
C:   0000048A  A$interrupts$1815                  interrupts
C:   0000048A  C$interrupts.c$335$1_0$210         interrupts
C:   0000048A  G$_reserved4_$0$0                  interrupts
C:   0000048A  XG$_reserved4_$0$0                 interrupts
C:   0000048A  __reserved4_                       interrupts
C:   0000048B  A$interrupts$1828                  interrupts
C:   0000048B  C$interrupts.c$336$1_0$213         interrupts
C:   0000048B  G$_reserved5_$0$0                  interrupts
C:   0000048B  XG$_reserved5_$0$0                 interrupts
C:   0000048B  __reserved5_                       interrupts
C:   0000048C  A$interrupts$1841                  interrupts
C:   0000048C  C$interrupts.c$337$1_0$216         interrupts
C:   0000048C  G$EP2ISOERR$0$0                    interrupts
C:   0000048C  XG$EP2ISOERR$0$0                   interrupts
C:   0000048C  _EP2ISOERR                         interrupts
C:   0000048D  A$interrupts$1854                  interrupts
C:   0000048D  C$interrupts.c$338$1_0$219         interrupts
C:   0000048D  G$EP4ISOERR$0$0                    interrupts
C:   0000048D  XG$EP4ISOERR$0$0                   interrupts
C:   0000048D  _EP4ISOERR                         interrupts
C:   0000048E  A$interrupts$1867                  interrupts
C:   0000048E  C$interrupts.c$339$1_0$222         interrupts
C:   0000048E  G$EP6ISOERR$0$0                    interrupts
C:   0000048E  XG$EP6ISOERR$0$0                   interrupts
C:   0000048E  _EP6ISOERR                         interrupts
C:   0000048F  A$interrupts$1880                  interrupts
C:   0000048F  C$interrupts.c$340$1_0$225         interrupts
C:   0000048F  G$EP8ISOERR$0$0                    interrupts
C:   0000048F  XG$EP8ISOERR$0$0                   interrupts
C:   0000048F  _EP8ISOERR                         interrupts
C:   00000490  A$interrupts$1894                  interrupts
C:   00000490  C$interrupts.c$342$1_0$227         interrupts
C:   00000490  G$send_byte_uart_9600$0$0          interrupts
C:   00000490  _send_byte_uart_9600               interrupts
C:   00000492  A$interrupts$1897                  interrupts
C:   00000492  C$interrupts.c$344$1_0$227         interrupts
C:   00000495  A$interrupts$1900                  interrupts
C:   00000495  C$interrupts.c$345$1_0$227         interrupts
C:   00000498  A$interrupts$1903                  interrupts
C:   00000498  C$interrupts.c$346$1_0$227         interrupts
C:   0000049B  A$interrupts$1906                  interrupts
C:   0000049B  C$interrupts.c$347$1_0$227         interrupts
C:   0000049E  A$interrupts$1910                  interrupts
C:   0000049E  C$interrupts.c$348$1_0$227         interrupts
C:   000004A0  A$interrupts$1914                  interrupts
C:   000004A0  C$interrupts.c$350$1_0$227         interrupts
C:   000004A2  A$interrupts$1921                  interrupts
ASxxxx Linker V03.00 + NoICE + sdld,  page 36.
Hexadecimal  [32-Bits]

Area                                    Addr        Size        Decimal Bytes (Attributes)
--------------------------------        ----        ----        ------- ----- ------------
USB_INTERRUPTS                      0000018D    00000351 =         849. bytes (REL,CON,CODE)

      Value  Global                              Global Defined In Module
      -----  --------------------------------   ------------------------
C:   000004A2  C$interrupts.c$351$1_0$227         interrupts
C:   000004A2  C$interrupts.c$352$1_0$227         interrupts
C:   000004A5  A$interrupts$1922                  interrupts
C:   000004A7  A$interrupts$1926                  interrupts
C:   000004A7  C$interrupts.c$353$1_0$227         interrupts
C:   000004A9  A$interrupts$1928                  interrupts
C:   000004AC  A$interrupts$1930                  interrupts
C:   000004AE  A$interrupts$1933                  interrupts
C:   000004AE  C$interrupts.c$355$3_0$229         interrupts
C:   000004B0  A$interrupts$1934                  interrupts
C:   000004B2  A$interrupts$1935                  interrupts
C:   000004B3  A$interrupts$1936                  interrupts
C:   000004B5  A$interrupts$1938                  interrupts
C:   000004B6  A$interrupts$1939                  interrupts
C:   000004B7  A$interrupts$1941                  interrupts
C:   000004BA  A$interrupts$1942                  interrupts
C:   000004BC  A$interrupts$1944                  interrupts
C:   000004BD  A$interrupts$1945                  interrupts
C:   000004BF  A$interrupts$1946                  interrupts
C:   000004C1  A$interrupts$1953                  interrupts
C:   000004C1  C$interrupts.c$356$3_0$229         interrupts
C:   000004C1  C$interrupts.c$357$3_0$229         interrupts
C:   000004C4  A$interrupts$1954                  interrupts
C:   000004C6  A$interrupts$1958                  interrupts
C:   000004C6  C$interrupts.c$353$2_0$228         interrupts
C:   000004C7  A$interrupts$1959                  interrupts
C:   000004C9  A$interrupts$1964                  interrupts
C:   000004C9  C$interrupts.c$359$1_0$227         interrupts
C:   000004CB  A$interrupts$1971                  interrupts
C:   000004CB  C$interrupts.c$360$1_0$227         interrupts
C:   000004CB  C$interrupts.c$361$1_0$227         interrupts
C:   000004CE  A$interrupts$1972                  interrupts
C:   000004D0  A$interrupts$1980                  interrupts
C:   000004D0  C$interrupts.c$362$1_0$227         interrupts
C:   000004D0  C$interrupts.c$363$1_0$227         interrupts
C:   000004D3  A$interrupts$1981                  interrupts
C:   000004D5  A$interrupts$1986                  interrupts
C:   000004D5  C$interrupts.c$364$1_0$227         interrupts
C:   000004D7  A$interrupts$1989                  interrupts
C:   000004D7  C$interrupts.c$365$1_0$227         interrupts
C:   000004DA  A$interrupts$1992                  interrupts
C:   000004DA  C$interrupts.c$366$1_0$227         interrupts
C:   000004DD  A$interrupts$1999                  interrupts
C:   000004DD  C$interrupts.c$367$1_0$227         interrupts
C:   000004DD  C$interrupts.c$369$1_0$227         interrupts
C:   000004DD  XG$send_byte_uart_9600$0$0         interrupts
ASxxxx Linker V03.00 + NoICE + sdld,  page 37.
Hexadecimal  [32-Bits]

Area                                    Addr        Size        Decimal Bytes (Attributes)
--------------------------------        ----        ----        ------- ----- ------------
TABLE                               000004DE    0000005E =          94. bytes (REL,CON,CODE)

      Value  Global                              Global Defined In Module
      -----  --------------------------------   ------------------------
C:   000004DE  G$descr$0_0$0                      table
C:   000004DE  _descr                             table
C:   000004F0  G$configuration0$0_0$0             table
C:   000004F0  _configuration0                    table
C:   00000510  G$string0$0_0$0                    table
C:   00000510  _string0                           table
C:   00000514  G$string1$0_0$0                    table
C:   00000514  _string1                           table
C:   00000520  G$string2$0_0$0                    table
C:   00000520  _string2                           table

ASxxxx Linker V03.00 + NoICE + sdld,  page 38.

Files Linked                              [ module(s) ]

obj\Debug\interrupts.rel                  [  ]
obj\Debug\main.rel                        [  ]
obj\Debug\table.rel                       [  ]


Libraries Linked                          [ object file ]

D:\CodeBlocks2\sdcc\bin\..\lib\small/mcs51.lib
                                          [ crtclear.rel ]
D:\CodeBlocks2\sdcc\bin\..\lib\small/mcs51.lib
                                          [ crtxinit.rel ]
D:\CodeBlocks2\sdcc\bin\..\lib\small/mcs51.lib
                                          [ crtxclear.rel ]
D:\CodeBlocks2\sdcc\bin\..\lib\small/mcs51.lib
                                          [ crtcall.rel ]
D:\CodeBlocks2\sdcc\bin\..\lib\small/mcs51.lib
                                          [ crtstart.rel ]
D:\CodeBlocks2\sdcc\bin\..\lib\small/libsdcc.lib
                                          [ _startup.rel ]

ASxxxx Linker V03.00 + NoICE + sdld,  page 39.

User Base Address Definitions

HOME = 0x0000
XSEG = 0x0001
PSEG = 0x0001
ISEG = 0x0000
BSEG = 0x0000

